Certificate Request:
    Data:
        Version: 0 (0x0)
        Subject: C=US, ST=CA, L=Palo Alto, O=Open vSwitch, OU=Open vSwitch certifier, CN=controller id:525411e4-6f7e-47e9-9491-3d6b892a58aa
        Subject Public Key Info:
            Public Key Algorithm: rsaEncryption
                Public-Key: (2048 bit)
                Modulus:
                    00:be:a7:5f:b6:3e:9b:4a:d0:8b:33:9b:19:50:02:
                    d8:e4:a7:09:09:ea:3e:fb:a6:8c:ed:67:9d:6e:ff:
                    ce:5f:8f:db:86:f0:47:32:b7:8d:17:39:e8:32:8a:
                    46:88:02:3c:c8:ff:57:29:33:c6:45:f1:78:2e:96:
                    cf:3f:a1:dc:e9:ee:cb:8f:8b:bf:29:3a:c4:38:73:
                    a8:5a:ad:3e:8d:2e:16:fc:3c:8a:c9:fe:bf:9b:c6:
                    4d:12:08:83:da:8a:fe:f6:a4:42:3b:54:b5:f9:d6:
                    3f:6f:07:c2:57:4f:42:66:87:22:c8:3e:ce:2e:0b:
                    eb:61:3f:ad:e0:c4:11:86:eb:0e:4e:30:93:32:f2:
                    9c:d1:8a:69:8f:cd:da:6e:01:8d:17:94:9a:e1:84:
                    91:76:52:cc:3f:cb:90:0e:5d:d0:8f:2f:05:bd:b8:
                    92:b8:1c:be:c7:5b:f7:07:31:16:27:d1:cf:04:dc:
                    97:bd:ea:c4:65:26:eb:bd:73:fa:90:b6:18:33:35:
                    68:85:99:98:9b:02:32:c4:cb:8e:4f:e8:0a:c3:72:
                    77:f6:89:5a:5e:27:fc:61:71:a8:58:61:95:85:b6:
                    bf:2b:d1:10:42:a5:66:17:ee:53:f0:e7:6e:02:a8:
                    fd:6a:f9:58:13:74:4f:f9:68:a7:56:6a:b0:ae:93:
                    8f:f9
                Exponent: 65537 (0x10001)
        Attributes:
            a0:00
    Signature Algorithm: sha256WithRSAEncryption
         04:01:ea:74:0a:18:82:3f:40:ee:49:88:29:72:f8:5f:46:36:
         21:d5:0e:50:bf:86:db:40:b6:b5:57:e6:dd:0e:a7:60:21:ed:
         6e:f0:e4:93:fa:d5:bf:32:6b:78:8f:80:44:44:d2:c0:62:aa:
         07:d2:14:c0:e2:05:c2:33:94:c0:28:e3:68:cc:99:81:32:79:
         e3:7c:86:d6:0e:74:56:05:bc:7b:c0:f8:57:a4:95:9e:16:eb:
         70:50:4f:62:c4:4c:ca:92:25:47:51:26:9e:a4:63:bb:35:9e:
         ee:4e:71:7c:86:90:87:e8:08:ec:31:35:5c:3a:3b:7e:66:11:
         5d:1f:b0:8a:5f:4a:87:b0:ad:43:ac:39:bd:7c:a6:be:b8:37:
         c4:d8:5d:5e:52:ec:71:e2:ce:7f:0b:70:9a:2f:23:6e:8a:ed:
         a0:30:1f:a6:a8:c4:cd:f7:f2:d2:b6:68:c1:a1:a4:0e:73:3e:
         f0:8d:8d:05:66:b4:f4:8c:ec:de:ce:a0:21:2b:18:26:3e:75:
         bc:3e:ee:93:13:1f:1f:03:ff:ff:cb:6d:c0:de:33:9c:02:b3:
         7a:43:72:5b:54:92:55:fc:de:1c:c1:2f:66:97:aa:82:c3:dd:
         3c:b4:8d:ed:f2:58:b9:be:c9:b4:f3:b5:e2:7c:1e:23:e3:7d:
         ad:10:7d:a7
-----BEGIN CERTIFICATE REQUEST-----
MIIC6TCCAdECAQAwgaMxCzAJBgNVBAYTAlVTMQswCQYDVQQIEwJDQTESMBAGA1UE
BxMJUGFsbyBBbHRvMRUwEwYDVQQKEwxPcGVuIHZTd2l0Y2gxHzAdBgNVBAsTFk9w
ZW4gdlN3aXRjaCBjZXJ0aWZpZXIxOzA5BgNVBAMTMmNvbnRyb2xsZXIgaWQ6NTI1
NDExZTQtNmY3ZS00N2U5LTk0OTEtM2Q2Yjg5MmE1OGFhMIIBIjANBgkqhkiG9w0B
AQEFAAOCAQ8AMIIBCgKCAQEAvqdftj6bStCLM5sZUALY5KcJCeo++6aM7Wedbv/O
X4/bhvBHMreNFznoMopGiAI8yP9XKTPGRfF4LpbPP6Hc6e7Lj4u/KTrEOHOoWq0+
jS4W/DyKyf6/m8ZNEgiD2or+9qRCO1S1+dY/bwfCV09CZociyD7OLgvrYT+t4MQR
husOTjCTMvKc0Yppj83abgGNF5Sa4YSRdlLMP8uQDl3Qjy8FvbiSuBy+x1v3BzEW
J9HPBNyXverEZSbrvXP6kLYYMzVohZmYmwIyxMuOT+gKw3J39olaXif8YXGoWGGV
hba/K9EQQqVmF+5T8OduAqj9avlYE3RP+WinVmqwrpOP+QIDAQABoAAwDQYJKoZI
hvcNAQELBQADggEBAAQB6nQKGII/QO5JiCly+F9GNiHVDlC/httAtrVX5t0Op2Ah
7W7w5JP61b8ya3iPgERE0sBiqgfSFMDiBcIzlMAo42jMmYEyeeN8htYOdFYFvHvA
+FeklZ4W63BQT2LETMqSJUdRJp6kY7s1nu5OcXyGkIfoCOwxNVw6O35mEV0fsIpf
SoewrUOsOb18pr64N8TYXV5S7HHizn8LcJovI26K7aAwH6aoxM338tK2aMGhpA5z
PvCNjQVmtPSM7N7OoCErGCY+dbw+7pMTHx8D///LbcDeM5wCs3pDcltUklX83hzB
L2aXqoLD3Ty0je3yWLm+ybTzteJ8HiPjfa0Qfac=
-----END CERTIFICATE REQUEST-----
