Certificate:
    Data:
        Version: 1 (0x0)
        Serial Number: 2 (0x2)
    Signature Algorithm: sha512WithRSAEncryption
        Issuer: C=US, ST=CA, O=Open vSwitch, OU=switchca, CN=OVS switchca CA Certificate (2017 Feb 05 18:46:55)
        Validity
            Not Before: Feb  5 17:47:41 2017 GMT
            Not After : Feb  3 17:47:41 2027 GMT
        Subject: C=US, ST=CA, O=Open vSwitch, OU=Open vSwitch certifier, CN=controller id:525411e4-6f7e-47e9-9491-3d6b892a58aa
        Subject Public Key Info:
            Public Key Algorithm: rsaEncryption
                Public-Key: (2048 bit)
                Modulus:
                    00:be:a7:5f:b6:3e:9b:4a:d0:8b:33:9b:19:50:02:
                    d8:e4:a7:09:09:ea:3e:fb:a6:8c:ed:67:9d:6e:ff:
                    ce:5f:8f:db:86:f0:47:32:b7:8d:17:39:e8:32:8a:
                    46:88:02:3c:c8:ff:57:29:33:c6:45:f1:78:2e:96:
                    cf:3f:a1:dc:e9:ee:cb:8f:8b:bf:29:3a:c4:38:73:
                    a8:5a:ad:3e:8d:2e:16:fc:3c:8a:c9:fe:bf:9b:c6:
                    4d:12:08:83:da:8a:fe:f6:a4:42:3b:54:b5:f9:d6:
                    3f:6f:07:c2:57:4f:42:66:87:22:c8:3e:ce:2e:0b:
                    eb:61:3f:ad:e0:c4:11:86:eb:0e:4e:30:93:32:f2:
                    9c:d1:8a:69:8f:cd:da:6e:01:8d:17:94:9a:e1:84:
                    91:76:52:cc:3f:cb:90:0e:5d:d0:8f:2f:05:bd:b8:
                    92:b8:1c:be:c7:5b:f7:07:31:16:27:d1:cf:04:dc:
                    97:bd:ea:c4:65:26:eb:bd:73:fa:90:b6:18:33:35:
                    68:85:99:98:9b:02:32:c4:cb:8e:4f:e8:0a:c3:72:
                    77:f6:89:5a:5e:27:fc:61:71:a8:58:61:95:85:b6:
                    bf:2b:d1:10:42:a5:66:17:ee:53:f0:e7:6e:02:a8:
                    fd:6a:f9:58:13:74:4f:f9:68:a7:56:6a:b0:ae:93:
                    8f:f9
                Exponent: 65537 (0x10001)
    Signature Algorithm: sha512WithRSAEncryption
         6c:9e:8b:60:77:33:91:90:de:d3:1a:fe:fe:ef:9b:1a:bc:5b:
         2e:3f:0d:d4:cc:35:5a:a4:05:0e:34:88:4f:61:18:11:f7:9c:
         06:04:66:45:44:df:6b:41:b2:81:86:0e:8d:3f:af:24:a2:12:
         a6:c6:4a:13:4f:3d:e1:0d:90:6c:fd:ad:33:8e:8e:65:57:3f:
         c9:ec:e8:83:3f:2a:8d:89:62:92:30:a5:79:d6:e5:91:8b:08:
         71:98:fe:b5:11:a6:f5:ac:93:b5:99:6d:7b:2e:80:f5:a5:f9:
         17:7e:7e:31:7f:f9:fa:d8:7c:68:d0:1d:28:17:39:e3:a0:db:
         1a:12:45:56:78:a8:39:b5:2f:1a:5b:27:60:ad:48:cd:85:42:
         e1:7c:2b:4b:f1:f5:ba:c5:73:30:e2:5f:9d:7f:67:64:be:79:
         b8:aa:cf:87:6d:fe:e8:81:42:82:36:db:25:da:80:a4:b5:c3:
         fd:a7:ca:57:9c:23:b7:02:cc:35:b0:ec:b5:ad:28:46:22:3c:
         3b:cb:2d:36:01:d0:5c:65:b1:63:ab:71:70:bb:0b:0c:bd:34:
         09:5c:ad:f7:dc:b0:a2:2c:3a:e5:78:6a:cb:a1:c0:d0:93:c0:
         b6:13:63:57:bd:89:34:c1:38:93:59:83:19:57:2a:de:00:79:
         4d:5f:41:87
-----BEGIN CERTIFICATE-----
MIIDhjCCAm4CAQIwDQYJKoZIhvcNAQENBQAwgYExCzAJBgNVBAYTAlVTMQswCQYD
VQQIEwJDQTEVMBMGA1UEChMMT3BlbiB2U3dpdGNoMREwDwYDVQQLEwhzd2l0Y2hj
YTE7MDkGA1UEAxMyT1ZTIHN3aXRjaGNhIENBIENlcnRpZmljYXRlICgyMDE3IEZl
YiAwNSAxODo0Njo1NSkwHhcNMTcwMjA1MTc0NzQxWhcNMjcwMjAzMTc0NzQxWjCB
jzELMAkGA1UEBhMCVVMxCzAJBgNVBAgTAkNBMRUwEwYDVQQKEwxPcGVuIHZTd2l0
Y2gxHzAdBgNVBAsTFk9wZW4gdlN3aXRjaCBjZXJ0aWZpZXIxOzA5BgNVBAMTMmNv
bnRyb2xsZXIgaWQ6NTI1NDExZTQtNmY3ZS00N2U5LTk0OTEtM2Q2Yjg5MmE1OGFh
MIIBIjANBgkqhkiG9w0BAQEFAAOCAQ8AMIIBCgKCAQEAvqdftj6bStCLM5sZUALY
5KcJCeo++6aM7Wedbv/OX4/bhvBHMreNFznoMopGiAI8yP9XKTPGRfF4LpbPP6Hc
6e7Lj4u/KTrEOHOoWq0+jS4W/DyKyf6/m8ZNEgiD2or+9qRCO1S1+dY/bwfCV09C
ZociyD7OLgvrYT+t4MQRhusOTjCTMvKc0Yppj83abgGNF5Sa4YSRdlLMP8uQDl3Q
jy8FvbiSuBy+x1v3BzEWJ9HPBNyXverEZSbrvXP6kLYYMzVohZmYmwIyxMuOT+gK
w3J39olaXif8YXGoWGGVhba/K9EQQqVmF+5T8OduAqj9avlYE3RP+WinVmqwrpOP
+QIDAQABMA0GCSqGSIb3DQEBDQUAA4IBAQBsnotgdzORkN7TGv7+75savFsuPw3U
zDVapAUONIhPYRgR95wGBGZFRN9rQbKBhg6NP68kohKmxkoTTz3hDZBs/a0zjo5l
Vz/J7OiDPyqNiWKSMKV51uWRiwhxmP61Eab1rJO1mW17LoD1pfkXfn4xf/n62Hxo
0B0oFznjoNsaEkVWeKg5tS8aWydgrUjNhULhfCtL8fW6xXMw4l+df2dkvnm4qs+H
bf7ogUKCNtsl2oCktcP9p8pXnCO3Asw1sOy1rShGIjw7yy02AdBcZbFjq3FwuwsM
vTQJXK333LCiLDrleGrLocDQk8C2E2NXvYk0wTiTWYMZVyreAHlNX0GH
-----END CERTIFICATE-----
