Certificate:
    Data:
        Version: 1 (0x0)
        Serial Number: 3 (0x3)
    Signature Algorithm: sha512WithRSAEncryption
        Issuer: C=US, ST=CA, O=Open vSwitch, OU=switchca, CN=OVS switchca CA Certificate (2017 Feb 05 18:46:55)
        Validity
            Not Before: Feb  5 17:48:27 2017 GMT
            Not After : Feb  3 17:48:27 2027 GMT
        Subject: C=US, ST=CA, O=Open vSwitch, OU=Open vSwitch certifier, CN=sc id:3b845a12-39ae-484e-96a7-dde30c636a5f
        Subject Public Key Info:
            Public Key Algorithm: rsaEncryption
                Public-Key: (2048 bit)
                Modulus:
                    00:a9:99:d0:13:e2:91:fd:b6:8f:2d:9d:b5:01:6e:
                    df:f5:cb:7b:9f:04:2e:10:a7:80:79:8f:a5:48:49:
                    70:f6:c7:2c:e5:0a:ad:bd:15:cf:22:fc:86:bd:40:
                    89:f7:a6:f1:8c:f5:80:07:e6:14:10:df:65:1f:04:
                    3e:b4:fb:a4:da:a5:e7:9a:15:71:4b:68:ac:34:2c:
                    94:b2:e9:a8:07:57:91:2b:0d:84:7b:71:56:98:85:
                    4a:65:0f:12:67:9c:9e:95:7c:ec:48:80:1f:b2:39:
                    dc:45:d2:42:0c:a0:08:fc:32:a5:a4:af:18:77:a8:
                    d8:c0:75:b0:67:a8:56:f6:a2:c5:70:6a:0d:6a:13:
                    d6:26:59:18:b1:98:f9:8f:f2:65:1b:74:67:3a:be:
                    37:25:19:83:ff:bc:bb:9e:7c:38:c4:d3:ec:8b:f0:
                    ba:a4:b6:a4:9e:0c:45:bd:2a:a9:cb:2c:85:1e:b8:
                    64:94:4e:95:b2:3d:d1:f9:7b:bb:d3:52:e9:53:25:
                    2f:38:aa:26:8e:5a:59:85:f6:61:cd:04:39:80:3e:
                    3e:8b:f9:d0:41:c3:8f:6a:4f:ef:5e:86:7a:77:ca:
                    92:ed:53:8e:d1:7f:53:eb:77:5e:b3:f0:ee:48:ee:
                    f7:37:c3:cb:b9:99:1a:9b:68:62:6f:3f:5b:a8:85:
                    46:4b
                Exponent: 65537 (0x10001)
    Signature Algorithm: sha512WithRSAEncryption
         55:ee:eb:64:24:99:7a:b8:a0:e6:ea:3c:22:a3:b5:52:64:dc:
         49:0d:47:2f:9a:38:b2:a7:6c:6b:92:52:e3:af:2d:40:5b:99:
         0c:9f:63:f5:95:5b:ce:49:93:17:77:f7:f1:96:52:b6:1b:4f:
         18:5b:cc:3e:8b:e5:dd:cf:a3:9a:45:41:d9:69:c6:4e:95:83:
         75:b4:16:d0:fd:68:f1:0a:bb:ca:77:bb:36:fa:95:76:e2:c4:
         24:52:aa:9f:da:0e:42:cd:29:31:1e:4b:a1:9a:eb:03:ff:ba:
         24:fb:70:aa:b6:bc:3a:0a:e5:44:aa:03:d8:ca:1f:f3:97:81:
         4e:f3:ac:12:98:ec:58:1c:f9:a1:45:0a:9e:aa:c7:3d:c2:ec:
         36:44:44:1a:cd:84:90:37:9f:e0:ec:be:bb:a7:77:2f:c4:2e:
         19:39:df:6e:c4:ba:27:1b:e9:2e:43:03:00:3f:57:5b:a2:c1:
         79:2c:fd:70:77:fa:1b:b4:d3:e4:9d:30:3a:dd:6a:c4:9f:22:
         9a:f3:81:bf:3c:94:0d:30:d9:13:32:bd:04:14:73:51:0d:84:
         73:83:41:7b:20:a8:ee:12:fe:0a:99:a5:4a:4d:7a:a1:03:01:
         81:0e:66:20:73:6d:7c:56:7c:bd:7d:3c:d7:35:7f:12:6c:16:
         fd:bf:f6:83
-----BEGIN CERTIFICATE-----
MIIDfjCCAmYCAQMwDQYJKoZIhvcNAQENBQAwgYExCzAJBgNVBAYTAlVTMQswCQYD
VQQIEwJDQTEVMBMGA1UEChMMT3BlbiB2U3dpdGNoMREwDwYDVQQLEwhzd2l0Y2hj
YTE7MDkGA1UEAxMyT1ZTIHN3aXRjaGNhIENBIENlcnRpZmljYXRlICgyMDE3IEZl
YiAwNSAxODo0Njo1NSkwHhcNMTcwMjA1MTc0ODI3WhcNMjcwMjAzMTc0ODI3WjCB
hzELMAkGA1UEBhMCVVMxCzAJBgNVBAgTAkNBMRUwEwYDVQQKEwxPcGVuIHZTd2l0
Y2gxHzAdBgNVBAsTFk9wZW4gdlN3aXRjaCBjZXJ0aWZpZXIxMzAxBgNVBAMTKnNj
IGlkOjNiODQ1YTEyLTM5YWUtNDg0ZS05NmE3LWRkZTMwYzYzNmE1ZjCCASIwDQYJ
KoZIhvcNAQEBBQADggEPADCCAQoCggEBAKmZ0BPikf22jy2dtQFu3/XLe58ELhCn
gHmPpUhJcPbHLOUKrb0VzyL8hr1Aifem8Yz1gAfmFBDfZR8EPrT7pNql55oVcUto
rDQslLLpqAdXkSsNhHtxVpiFSmUPEmecnpV87EiAH7I53EXSQgygCPwypaSvGHeo
2MB1sGeoVvaixXBqDWoT1iZZGLGY+Y/yZRt0Zzq+NyUZg/+8u558OMTT7IvwuqS2
pJ4MRb0qqcsshR64ZJROlbI90fl7u9NS6VMlLziqJo5aWYX2Yc0EOYA+Pov50EHD
j2pP716GenfKku1TjtF/U+t3XrPw7kju9zfDy7mZGptoYm8/W6iFRksCAwEAATAN
BgkqhkiG9w0BAQ0FAAOCAQEAVe7rZCSZerig5uo8IqO1UmTcSQ1HL5o4sqdsa5JS
468tQFuZDJ9j9ZVbzkmTF3f38ZZSthtPGFvMPovl3c+jmkVB2WnGTpWDdbQW0P1o
8Qq7yne7NvqVduLEJFKqn9oOQs0pMR5LoZrrA/+6JPtwqra8OgrlRKoD2Mof85eB
TvOsEpjsWBz5oUUKnqrHPcLsNkREGs2EkDef4Oy+u6d3L8QuGTnfbsS6JxvpLkMD
AD9XW6LBeSz9cHf6G7TT5J0wOt1qxJ8imvOBvzyUDTDZEzK9BBRzUQ2Ec4NBeyCo
7hL+CpmlSk16oQMBgQ5mIHNtfFZ8vX081zV/EmwW/b/2gw==
-----END CERTIFICATE-----
