Certificate Request:
    Data:
        Version: 0 (0x0)
        Subject: C=US, ST=CA, L=Palo Alto, O=Open vSwitch, OU=Open vSwitch certifier, CN=sc id:3b845a12-39ae-484e-96a7-dde30c636a5f
        Subject Public Key Info:
            Public Key Algorithm: rsaEncryption
                Public-Key: (2048 bit)
                Modulus:
                    00:a9:99:d0:13:e2:91:fd:b6:8f:2d:9d:b5:01:6e:
                    df:f5:cb:7b:9f:04:2e:10:a7:80:79:8f:a5:48:49:
                    70:f6:c7:2c:e5:0a:ad:bd:15:cf:22:fc:86:bd:40:
                    89:f7:a6:f1:8c:f5:80:07:e6:14:10:df:65:1f:04:
                    3e:b4:fb:a4:da:a5:e7:9a:15:71:4b:68:ac:34:2c:
                    94:b2:e9:a8:07:57:91:2b:0d:84:7b:71:56:98:85:
                    4a:65:0f:12:67:9c:9e:95:7c:ec:48:80:1f:b2:39:
                    dc:45:d2:42:0c:a0:08:fc:32:a5:a4:af:18:77:a8:
                    d8:c0:75:b0:67:a8:56:f6:a2:c5:70:6a:0d:6a:13:
                    d6:26:59:18:b1:98:f9:8f:f2:65:1b:74:67:3a:be:
                    37:25:19:83:ff:bc:bb:9e:7c:38:c4:d3:ec:8b:f0:
                    ba:a4:b6:a4:9e:0c:45:bd:2a:a9:cb:2c:85:1e:b8:
                    64:94:4e:95:b2:3d:d1:f9:7b:bb:d3:52:e9:53:25:
                    2f:38:aa:26:8e:5a:59:85:f6:61:cd:04:39:80:3e:
                    3e:8b:f9:d0:41:c3:8f:6a:4f:ef:5e:86:7a:77:ca:
                    92:ed:53:8e:d1:7f:53:eb:77:5e:b3:f0:ee:48:ee:
                    f7:37:c3:cb:b9:99:1a:9b:68:62:6f:3f:5b:a8:85:
                    46:4b
                Exponent: 65537 (0x10001)
        Attributes:
            a0:00
    Signature Algorithm: sha256WithRSAEncryption
         31:a6:62:ba:ff:4c:f6:b9:e0:0c:e6:5d:45:3a:2a:8e:ea:2c:
         09:85:b8:5b:00:fc:86:13:8b:6c:90:37:a0:69:93:dc:19:6c:
         64:ab:51:8c:a4:9a:92:44:ce:75:9c:6c:7a:7c:ee:4d:a5:f1:
         8b:96:9a:8b:19:1e:20:ed:89:70:ef:7c:ae:3e:fd:a4:e3:29:
         8c:2a:88:25:a2:ec:c2:c3:d7:36:fc:14:59:22:1b:ce:6f:ff:
         f5:99:e4:17:72:53:03:ec:99:dd:47:21:aa:ee:22:c0:cc:60:
         ff:ce:bd:df:85:75:b5:f4:25:40:70:c7:8c:19:9c:64:75:c3:
         fe:7f:e9:37:71:8e:26:bb:d6:18:0d:99:05:25:28:73:2e:a6:
         78:29:8c:f9:db:fe:ae:fb:18:7b:cb:69:2c:d8:05:37:72:71:
         49:46:4e:ce:a6:e1:73:99:56:d8:2e:8a:fb:09:c0:ad:38:99:
         39:dc:e7:cf:45:80:43:57:d6:cd:6e:d0:12:9e:0e:00:aa:f7:
         af:88:03:b6:e2:1a:de:84:e8:4c:54:4a:26:0f:0e:2d:fb:35:
         e8:8b:9d:b5:6f:c7:55:3f:27:6b:2e:6c:0e:65:4f:15:31:04:
         28:e6:96:b3:28:d1:09:90:b9:99:ca:06:02:c9:ac:79:36:c6:
         8e:2e:39:45
-----BEGIN CERTIFICATE REQUEST-----
MIIC4TCCAckCAQAwgZsxCzAJBgNVBAYTAlVTMQswCQYDVQQIEwJDQTESMBAGA1UE
BxMJUGFsbyBBbHRvMRUwEwYDVQQKEwxPcGVuIHZTd2l0Y2gxHzAdBgNVBAsTFk9w
ZW4gdlN3aXRjaCBjZXJ0aWZpZXIxMzAxBgNVBAMTKnNjIGlkOjNiODQ1YTEyLTM5
YWUtNDg0ZS05NmE3LWRkZTMwYzYzNmE1ZjCCASIwDQYJKoZIhvcNAQEBBQADggEP
ADCCAQoCggEBAKmZ0BPikf22jy2dtQFu3/XLe58ELhCngHmPpUhJcPbHLOUKrb0V
zyL8hr1Aifem8Yz1gAfmFBDfZR8EPrT7pNql55oVcUtorDQslLLpqAdXkSsNhHtx
VpiFSmUPEmecnpV87EiAH7I53EXSQgygCPwypaSvGHeo2MB1sGeoVvaixXBqDWoT
1iZZGLGY+Y/yZRt0Zzq+NyUZg/+8u558OMTT7IvwuqS2pJ4MRb0qqcsshR64ZJRO
lbI90fl7u9NS6VMlLziqJo5aWYX2Yc0EOYA+Pov50EHDj2pP716GenfKku1TjtF/
U+t3XrPw7kju9zfDy7mZGptoYm8/W6iFRksCAwEAAaAAMA0GCSqGSIb3DQEBCwUA
A4IBAQAxpmK6/0z2ueAM5l1FOiqO6iwJhbhbAPyGE4tskDegaZPcGWxkq1GMpJqS
RM51nGx6fO5NpfGLlpqLGR4g7Ylw73yuPv2k4ymMKoglouzCw9c2/BRZIhvOb//1
meQXclMD7JndRyGq7iLAzGD/zr3fhXW19CVAcMeMGZxkdcP+f+k3cY4mu9YYDZkF
JShzLqZ4KYz52/6u+xh7y2ks2AU3cnFJRk7OpuFzmVbYLor7CcCtOJk53OfPRYBD
V9bNbtASng4AqveviAO24hrehOhMVEomDw4t+zXoi521b8dVPydrLmwOZU8VMQQo
5pazKNEJkLmZygYCyax5NsaOLjlF
-----END CERTIFICATE REQUEST-----
